; Function Attrs: nounwind uwtable
define ptr @l_Lean_Widget_CodeWithInfos_mergePosMap___rarg___lambda__1(ptr noundef %0, ptr noundef %1, ptr noundef %2, ptr noundef %3) local_unnamed_addr #1 {
  %5 = getelementptr inbounds nuw i8, ptr %3, i64 16
  %6 = load ptr, ptr %5, align 8, !tbaa !10
  %7 = ptrtoint ptr %6 to i64
  %8 = and i64 %7, 1
  %.not = icmp eq i64 %8, 0
  br i1 %.not, label %9, label %lean_inc.exit32

9:                                                ; preds = %4
  %.val.i = load i32, ptr %6, align 4, !tbaa !4
  %10 = icmp sgt i32 %.val.i, 0
  br i1 %10, label %11, label %13, !prof !9

11:                                               ; preds = %9
  %12 = add nuw i32 %.val.i, 1
  store i32 %12, ptr %6, align 4, !tbaa !4
  br label %16

13:                                               ; preds = %9
  %.not.i43 = icmp eq i32 %.val.i, 0
  br i1 %.not.i43, label %16, label %14

14:                                               ; preds = %13
  tail call void @lean_inc_ref_cold(ptr noundef nonnull %6) #8
  br label %16

lean_inc.exit32:                                  ; preds = %4
  %15 = tail call ptr @l_Lean_RBNode_find___at_Lean_Widget_CodeWithInfos_mergePosMap___spec__1___rarg(ptr noundef %0, ptr noundef %6)
  br label %lean_dec.exit29

16:                                               ; preds = %14, %13, %11
  %17 = tail call ptr @l_Lean_RBNode_find___at_Lean_Widget_CodeWithInfos_mergePosMap___spec__1___rarg(ptr noundef %0, ptr noundef nonnull %6)
  %18 = load i32, ptr %6, align 4, !tbaa !4
  %19 = icmp sgt i32 %18, 1
  br i1 %19, label %20, label %22, !prof !9

20:                                               ; preds = %16
  %21 = add nsw i32 %18, -1
  store i32 %21, ptr %6, align 4, !tbaa !4
  br label %lean_dec.exit29

22:                                               ; preds = %16
  %.not.i = icmp eq i32 %18, 0
  br i1 %.not.i, label %lean_dec.exit29, label %23

23:                                               ; preds = %22
  tail call void @lean_dec_ref_cold(ptr noundef nonnull %6) #8
  br label %lean_dec.exit29

lean_dec.exit29:                                  ; preds = %23, %22, %20, %lean_inc.exit32
  %24 = phi ptr [ %15, %lean_inc.exit32 ], [ %17, %20 ], [ %17, %22 ], [ %17, %23 ]
  %25 = ptrtoint ptr %24 to i64
  %26 = and i64 %25, 1
  %.not.i44 = icmp eq i64 %26, 0
  br i1 %.not.i44, label %30, label %27

27:                                               ; preds = %lean_dec.exit29
  %28 = lshr i64 %25, 1
  %29 = trunc i64 %28 to i32
  br label %lean_obj_tag.exit

30:                                               ; preds = %lean_dec.exit29
  %31 = getelementptr i8, ptr %24, i64 4
  %.val.i45 = load i32, ptr %31, align 4
  %32 = lshr i32 %.val.i45, 24
  br label %lean_obj_tag.exit

lean_obj_tag.exit:                                ; preds = %27, %30
  %.0.i = phi i32 [ %29, %27 ], [ %32, %30 ]
  %33 = icmp eq i32 %.0.i, 0
  br i1 %33, label %34, label %81

34:                                               ; preds = %lean_obj_tag.exit
  %35 = ptrtoint ptr %2 to i64
  %36 = and i64 %35, 1
  %.not58 = icmp eq i64 %36, 0
  br i1 %.not58, label %37, label %lean_dec.exit28

37:                                               ; preds = %34
  %38 = load i32, ptr %2, align 4, !tbaa !4
  %39 = icmp sgt i32 %38, 1
  br i1 %39, label %40, label %42, !prof !9

40:                                               ; preds = %37
  %41 = add nsw i32 %38, -1
  store i32 %41, ptr %2, align 4, !tbaa !4
  br label %lean_dec.exit28

42:                                               ; preds = %37
  %.not.i33 = icmp eq i32 %38, 0
  br i1 %.not.i33, label %lean_dec.exit28, label %43

43:                                               ; preds = %42
  tail call void @lean_dec_ref_cold(ptr noundef nonnull %2) #8
  br label %lean_dec.exit28

lean_dec.exit28:                                  ; preds = %43, %42, %40, %34
  %44 = getelementptr inbounds nuw i8, ptr %1, i64 8
  %45 = load ptr, ptr %44, align 8, !tbaa !10
  %46 = ptrtoint ptr %45 to i64
  %47 = and i64 %46, 1
  %.not59 = icmp eq i64 %47, 0
  br i1 %.not59, label %48, label %lean_inc.exit31

48:                                               ; preds = %lean_dec.exit28
  %.val.i46 = load i32, ptr %45, align 4, !tbaa !4
  %49 = icmp sgt i32 %.val.i46, 0
  br i1 %49, label %50, label %52, !prof !9

50:                                               ; preds = %48
  %51 = add nuw i32 %.val.i46, 1
  store i32 %51, ptr %45, align 4, !tbaa !4
  br label %lean_inc.exit31

52:                                               ; preds = %48
  %.not.i47 = icmp eq i32 %.val.i46, 0
  br i1 %.not.i47, label %lean_inc.exit31, label %53

53:                                               ; preds = %52
  tail call void @lean_inc_ref_cold(ptr noundef nonnull %45) #8
  br label %lean_inc.exit31

lean_inc.exit31:                                  ; preds = %53, %52, %50, %lean_dec.exit28
  %54 = ptrtoint ptr %1 to i64
  %55 = and i64 %54, 1
  %.not60 = icmp eq i64 %55, 0
  br i1 %.not60, label %56, label %lean_dec.exit27

56:                                               ; preds = %lean_inc.exit31
  %57 = load i32, ptr %1, align 4, !tbaa !4
  %58 = icmp sgt i32 %57, 1
  br i1 %58, label %59, label %61, !prof !9

59:                                               ; preds = %56
  %60 = add nsw i32 %57, -1
  store i32 %60, ptr %1, align 4, !tbaa !4
  br label %lean_dec.exit27

61:                                               ; preds = %56
  %.not.i35 = icmp eq i32 %57, 0
  br i1 %.not.i35, label %lean_dec.exit27, label %62

62:                                               ; preds = %61
  tail call void @lean_dec_ref_cold(ptr noundef nonnull %1) #8
  br label %lean_dec.exit27

lean_dec.exit27:                                  ; preds = %62, %61, %59, %lean_inc.exit31
  %63 = getelementptr inbounds nuw i8, ptr %45, i64 16
  %64 = load ptr, ptr %63, align 8, !tbaa !10
  %65 = ptrtoint ptr %64 to i64
  %66 = and i64 %65, 1
  %.not61 = icmp eq i64 %66, 0
  br i1 %.not61, label %67, label %lean_inc.exit30

67:                                               ; preds = %lean_dec.exit27
  %.val.i49 = load i32, ptr %64, align 4, !tbaa !4
  %68 = icmp sgt i32 %.val.i49, 0
  br i1 %68, label %69, label %71, !prof !9

69:                                               ; preds = %67
  %70 = add nuw i32 %.val.i49, 1
  store i32 %70, ptr %64, align 4, !tbaa !4
  br label %lean_inc.exit30

71:                                               ; preds = %67
  %.not.i50 = icmp eq i32 %.val.i49, 0
  br i1 %.not.i50, label %lean_inc.exit30, label %72

72:                                               ; preds = %71
  tail call void @lean_inc_ref_cold(ptr noundef nonnull %64) #8
  br label %lean_inc.exit30

lean_inc.exit30:                                  ; preds = %72, %71, %69, %lean_dec.exit27
  br i1 %.not59, label %73, label %lean_dec.exit26

73:                                               ; preds = %lean_inc.exit30
  %74 = load i32, ptr %45, align 4, !tbaa !4
  %75 = icmp sgt i32 %74, 1
  br i1 %75, label %76, label %78, !prof !9

76:                                               ; preds = %73
  %77 = add nsw i32 %74, -1
  store i32 %77, ptr %45, align 4, !tbaa !4
  br label %lean_dec.exit26

78:                                               ; preds = %73
  %.not.i37 = icmp eq i32 %74, 0
  br i1 %.not.i37, label %lean_dec.exit26, label %79

79:                                               ; preds = %78
  tail call void @lean_dec_ref_cold(ptr noundef nonnull %45) #8
  br label %lean_dec.exit26

lean_dec.exit26:                                  ; preds = %79, %78, %76, %lean_inc.exit30
  %80 = tail call ptr @lean_apply_2(ptr noundef %64, ptr noundef nonnull inttoptr (i64 1 to ptr), ptr noundef nonnull %3) #8
  br label %109

81:                                               ; preds = %lean_obj_tag.exit
  %82 = ptrtoint ptr %1 to i64
  %83 = and i64 %82, 1
  %.not55 = icmp eq i64 %83, 0
  br i1 %.not55, label %84, label %lean_dec.exit25

84:                                               ; preds = %81
  %85 = load i32, ptr %1, align 4, !tbaa !4
  %86 = icmp sgt i32 %85, 1
  br i1 %86, label %87, label %89, !prof !9

87:                                               ; preds = %84
  %88 = add nsw i32 %85, -1
  store i32 %88, ptr %1, align 4, !tbaa !4
  br label %lean_dec.exit25

89:                                               ; preds = %84
  %.not.i39 = icmp eq i32 %85, 0
  br i1 %.not.i39, label %lean_dec.exit25, label %90

90:                                               ; preds = %89
  tail call void @lean_dec_ref_cold(ptr noundef nonnull %1) #8
  br label %lean_dec.exit25

lean_dec.exit25:                                  ; preds = %90, %89, %87, %81
  %91 = getelementptr inbounds nuw i8, ptr %24, i64 8
  %92 = load ptr, ptr %91, align 8, !tbaa !10
  %93 = ptrtoint ptr %92 to i64
  %94 = and i64 %93, 1
  %.not56 = icmp eq i64 %94, 0
  br i1 %.not56, label %95, label %lean_inc.exit

95:                                               ; preds = %lean_dec.exit25
  %.val.i52 = load i32, ptr %92, align 4, !tbaa !4
  %96 = icmp sgt i32 %.val.i52, 0
  br i1 %96, label %97, label %99, !prof !9

97:                                               ; preds = %95
  %98 = add nuw i32 %.val.i52, 1
  store i32 %98, ptr %92, align 4, !tbaa !4
  br label %lean_inc.exit

99:                                               ; preds = %95
  %.not.i53 = icmp eq i32 %.val.i52, 0
  br i1 %.not.i53, label %lean_inc.exit, label %100

100:                                              ; preds = %99
  tail call void @lean_inc_ref_cold(ptr noundef nonnull %92) #8
  br label %lean_inc.exit

lean_inc.exit:                                    ; preds = %100, %99, %97, %lean_dec.exit25
  br i1 %.not.i44, label %101, label %lean_dec.exit

101:                                              ; preds = %lean_inc.exit
  %102 = load i32, ptr %24, align 4, !tbaa !4
  %103 = icmp sgt i32 %102, 1
  br i1 %103, label %104, label %106, !prof !9

104:                                              ; preds = %101
  %105 = add nsw i32 %102, -1
  store i32 %105, ptr %24, align 4, !tbaa !4
  br label %lean_dec.exit

106:                                              ; preds = %101
  %.not.i41 = icmp eq i32 %102, 0
  br i1 %.not.i41, label %lean_dec.exit, label %107

107:                                              ; preds = %106
  tail call void @lean_dec_ref_cold(ptr noundef nonnull %24) #8
  br label %lean_dec.exit

lean_dec.exit:                                    ; preds = %107, %106, %104, %lean_inc.exit
  %108 = tail call ptr @lean_apply_2(ptr noundef %2, ptr noundef nonnull %3, ptr noundef %92) #8
  br label %109

109:                                              ; preds = %lean_dec.exit, %lean_dec.exit26
  %.0 = phi ptr [ %80, %lean_dec.exit26 ], [ %108, %lean_dec.exit ]
  ret ptr %.0
}